target datalayout = "e-m:e-p270:32:32-p271:32:32-p272:64:64-i64:64-i128:128-f80:128-n8:16:32:64-S128"
target triple = "x86_64-pc-linux-gnu"

%struct._zend_executor_globals = type { %struct._zval_struct, %struct._zval_struct, [32 x ptr], ptr, ptr, %struct._zend_array, %struct._zend_array, ptr, i32, i8, %struct._zval_struct, i32, ptr, ptr, ptr, ptr, ptr, ptr, i64, ptr, ptr, i32, ptr, i32, i64, i32, i32, i32, i8, i8, %struct.zend_atomic_bool_s, %struct.zend_atomic_bool_s, ptr, i64, ptr, ptr, %struct._zend_array, %struct._zend_array, i32, i8, %struct._zval_struct, %struct._zval_struct, %struct._zend_stack, %struct._zend_stack, %struct._zend_stack, ptr, i32, i32, i64, ptr, ptr, ptr, %struct._zend_objects_store, %struct._zend_lazy_objects_store, ptr, ptr, ptr, [3 x %struct._zend_op], ptr, i8, i8, i64, i32, i32, ptr, [16 x %struct._HashTableIterator], ptr, %union._zend_function, %struct._zend_op, %struct._zend_array, i64, %struct.zend_get_gc_buffer, ptr, ptr, ptr, i64, i8, i32, ptr, ptr, i64, %struct._zend_call_stack, i64, i64, %struct._zend_strtod_state, [6 x ptr] }
%struct.zend_atomic_bool_s = type { i8 }
%struct._zval_struct = type { %union._zend_value, %union.anon, %union.anon.2 }
%union._zend_value = type { i64 }
%union.anon = type { i32 }
%union.anon.2 = type { i32 }
%struct._zend_stack = type { i32, i32, i32, ptr }
%struct._zend_objects_store = type { ptr, i32, i32, i32 }
%struct._zend_lazy_objects_store = type { %struct._zend_array }
%struct._HashTableIterator = type { ptr, i32, i32 }
%union._zend_function = type { %struct._zend_op_array }
%struct._zend_op_array = type { i8, [3 x i8], i32, ptr, ptr, ptr, i32, i32, ptr, ptr, ptr, ptr, i32, ptr, i32, i32, i32, ptr, ptr, ptr, ptr, ptr, i32, i32, ptr, ptr, ptr, i32, i32, i32, i32, ptr, ptr, [6 x ptr] }
%struct._zend_op = type { ptr, %union._znode_op, %union._znode_op, %union._znode_op, i32, i32, i8, i8, i8, i8 }
%union._znode_op = type { i32 }
%struct._zend_array = type { %struct._zend_refcounted_h, %union.anon.4, i32, %union.anon.6, i32, i32, i32, i32, i64, ptr }
%struct._zend_refcounted_h = type { i32, %union.anon.3 }
%union.anon.3 = type { i32 }
%union.anon.4 = type { i32 }
%union.anon.6 = type { ptr }
%struct.zend_get_gc_buffer = type { ptr, ptr, ptr }
%struct._zend_call_stack = type { ptr, i64 }
%struct._zend_strtod_state = type { [8 x ptr], ptr, ptr }
%struct._zend_fcall_info_cache = type { ptr, ptr, ptr, ptr, ptr }
%struct._zend_fcall_info = type { i64, %struct._zval_struct, ptr, ptr, ptr, i32, ptr }
%struct._zend_llist = type { ptr, ptr, i64, i64, ptr, i8, ptr }
%struct._zend_execute_data = type { ptr, ptr, ptr, ptr, %struct._zval_struct, ptr, ptr, ptr, ptr }
%struct._php_sqlite3_db_object = type { i8, i8, ptr, ptr, ptr, %struct._zend_fcall_info_cache, %struct._zend_llist, %struct._zend_object }
%struct._zend_object = type { %struct._zend_refcounted_h, i32, i32, ptr, ptr, ptr, [1 x %struct._zval_struct] }
%struct._zend_string = type { %struct._zend_refcounted_h, i64, i64, [1 x i8] }
%struct.anon.7 = type { i8, [3 x i8], i32, ptr, ptr, ptr, i32, i32, ptr, ptr, ptr, ptr, i32, ptr }
%struct._php_sqlite3_func = type { ptr, ptr, i32, %struct._zend_fcall_info_cache, %struct._zend_fcall_info_cache, %struct._zend_fcall_info_cache }

@executor_globals = external global %struct._zend_executor_globals, align 8
@empty_fcall_info_cache = external constant %struct._zend_fcall_info_cache, align 8
@.str.8 = private unnamed_addr constant [75 x i8] c"The SQLite3 object has not been correctly initialised or is already closed\00", align 1
@empty_fcall_info = external constant %struct._zend_fcall_info, align 8
@.str.24 = private unnamed_addr constant [6 x i8] c"SF|ll\00", align 1

; Function Attrs: alwaysinline nounwind uwtable
define internal void @zend_fcc_addref(ptr noundef %0) #8 {
  %2 = alloca ptr, align 8
  %3 = alloca ptr, align 8
  store ptr %0, ptr %2, align 8, !tbaa !117
  %4 = load ptr, ptr %2, align 8, !tbaa !117
  %5 = getelementptr inbounds nuw %struct._zend_fcall_info_cache, ptr %4, i32 0, i32 0
  %6 = load ptr, ptr %5, align 8, !tbaa !151
  %7 = icmp ne ptr %6, null
  br i1 %7, label %8, label %9

8:                                                ; preds = %1
  br label %9

9:                                                ; preds = %8, %1
  %10 = phi i1 [ false, %1 ], [ true, %8 ]
  call void @llvm.assume(i1 %10)
  %11 = load ptr, ptr %2, align 8, !tbaa !117
  %12 = getelementptr inbounds nuw %struct._zend_fcall_info_cache, ptr %11, i32 0, i32 0
  %13 = load ptr, ptr %12, align 8, !tbaa !151
  %14 = icmp eq ptr %13, getelementptr inbounds nuw (%struct._zend_executor_globals, ptr @executor_globals, i32 0, i32 67)
  %15 = xor i1 %14, true
  %16 = xor i1 %15, true
  %17 = zext i1 %16 to i32
  %18 = sext i32 %17 to i64
  %19 = call i64 @llvm.expect.i64(i64 %18, i64 0)
  %20 = icmp ne i64 %19, 0
  br i1 %20, label %21, label %34

21:                                               ; preds = %9
  call void @llvm.lifetime.start.p0(i64 8, ptr %3) #15
  %22 = call noalias ptr @_emalloc_256()
  store ptr %22, ptr %3, align 8, !tbaa !66
  %23 = load ptr, ptr %3, align 8, !tbaa !66
  %24 = load ptr, ptr %2, align 8, !tbaa !117
  %25 = getelementptr inbounds nuw %struct._zend_fcall_info_cache, ptr %24, i32 0, i32 0
  %26 = load ptr, ptr %25, align 8, !tbaa !151
  call void @llvm.memcpy.p0.p0.i64(ptr align 8 %23, ptr align 8 %26, i64 256, i1 false)
  %27 = load ptr, ptr %2, align 8, !tbaa !117
  %28 = getelementptr inbounds nuw %struct._zend_fcall_info_cache, ptr %27, i32 0, i32 0
  %29 = load ptr, ptr %28, align 8, !tbaa !151
  %30 = getelementptr inbounds nuw %struct.anon.7, ptr %29, i32 0, i32 3
  store ptr null, ptr %30, align 8, !tbaa !13
  %31 = load ptr, ptr %3, align 8, !tbaa !66
  %32 = load ptr, ptr %2, align 8, !tbaa !117
  %33 = getelementptr inbounds nuw %struct._zend_fcall_info_cache, ptr %32, i32 0, i32 0
  store ptr %31, ptr %33, align 8, !tbaa !151
  call void @llvm.lifetime.end.p0(i64 8, ptr %3) #15
  br label %34

34:                                               ; preds = %21, %9
  %35 = load ptr, ptr %2, align 8, !tbaa !117
  %36 = getelementptr inbounds nuw %struct._zend_fcall_info_cache, ptr %35, i32 0, i32 3
  %37 = load ptr, ptr %36, align 8, !tbaa !152
  %38 = icmp ne ptr %37, null
  br i1 %38, label %39, label %45

39:                                               ; preds = %34
  %40 = load ptr, ptr %2, align 8, !tbaa !117
  %41 = getelementptr inbounds nuw %struct._zend_fcall_info_cache, ptr %40, i32 0, i32 3
  %42 = load ptr, ptr %41, align 8, !tbaa !152
  %43 = getelementptr inbounds nuw %struct._zend_object, ptr %42, i32 0, i32 0
  %44 = call i32 @zend_gc_addref(ptr noundef %43)
  br label %45

45:                                               ; preds = %39, %34
  %46 = load ptr, ptr %2, align 8, !tbaa !117
  %47 = getelementptr inbounds nuw %struct._zend_fcall_info_cache, ptr %46, i32 0, i32 4
  %48 = load ptr, ptr %47, align 8, !tbaa !153
  %49 = icmp ne ptr %48, null
  br i1 %49, label %50, label %56

50:                                               ; preds = %45
  %51 = load ptr, ptr %2, align 8, !tbaa !117
  %52 = getelementptr inbounds nuw %struct._zend_fcall_info_cache, ptr %51, i32 0, i32 4
  %53 = load ptr, ptr %52, align 8, !tbaa !153
  %54 = getelementptr inbounds nuw %struct._zend_object, ptr %53, i32 0, i32 0
  %55 = call i32 @zend_gc_addref(ptr noundef %54)
  br label %56

56:                                               ; preds = %50, %45
  ret void
}

; Function Attrs: alwaysinline nounwind uwtable
define internal i32 @zend_gc_addref(ptr noundef %0) #8 {
  %2 = alloca ptr, align 8
  store ptr %0, ptr %2, align 8, !tbaa !206
  br label %3

3:                                                ; preds = %1
  br label %4

4:                                                ; preds = %3
  %5 = load ptr, ptr %2, align 8, !tbaa !206
  %6 = getelementptr inbounds nuw %struct._zend_refcounted_h, ptr %5, i32 0, i32 0
  %7 = load i32, ptr %6, align 4, !tbaa !208
  %8 = add i32 %7, 1
  store i32 %8, ptr %6, align 4, !tbaa !208
  ret i32 %8
}

; Function Attrs: alwaysinline nounwind uwtable
define internal i32 @zval_gc_flags(i32 noundef %0) #8 {
  %2 = alloca i32, align 4
  store i32 %0, ptr %2, align 4, !tbaa !63
  %3 = load i32, ptr %2, align 4, !tbaa !63
  %4 = lshr i32 %3, 0
  %5 = and i32 %4, 1008
  ret i32 %5
}

; Function Attrs: alwaysinline nounwind uwtable
define internal void @zend_fcc_dup(ptr noundef %0, ptr noundef %1) #8 {
  %3 = alloca ptr, align 8
  %4 = alloca ptr, align 8
  store ptr %0, ptr %3, align 8, !tbaa !117
  store ptr %1, ptr %4, align 8, !tbaa !117
  %5 = load ptr, ptr %3, align 8, !tbaa !117
  %6 = load ptr, ptr %4, align 8, !tbaa !117
  call void @llvm.memcpy.p0.p0.i64(ptr align 8 %5, ptr align 8 %6, i64 40, i1 false)
  %7 = load ptr, ptr %3, align 8, !tbaa !117
  call void @zend_fcc_addref(ptr noundef %7)
  ret void
}

; Function Attrs: alwaysinline nounwind uwtable
define internal ptr @zend_string_copy(ptr noundef %0) #8 {
  %2 = alloca ptr, align 8
  store ptr %0, ptr %2, align 8, !tbaa !76
  %3 = load ptr, ptr %2, align 8, !tbaa !76
  %4 = getelementptr inbounds nuw %struct._zend_string, ptr %3, i32 0, i32 0
  %5 = getelementptr inbounds nuw %struct._zend_refcounted_h, ptr %4, i32 0, i32 1
  %6 = load i32, ptr %5, align 4, !tbaa !13
  %7 = call i32 @zval_gc_flags(i32 noundef %6)
  %8 = and i32 %7, 64
  %9 = icmp ne i32 %8, 0
  br i1 %9, label %14, label %10

10:                                               ; preds = %1
  %11 = load ptr, ptr %2, align 8, !tbaa !76
  %12 = getelementptr inbounds nuw %struct._zend_string, ptr %11, i32 0, i32 0
  %13 = call i32 @zend_gc_addref(ptr noundef %12)
  br label %14

14:                                               ; preds = %10, %1
  %15 = load ptr, ptr %2, align 8, !tbaa !76
  ret ptr %15
}

; Function Attrs: inlinehint nounwind uwtable
define internal ptr @php_sqlite3_db_from_obj(ptr noundef %0) #2 {
  %2 = alloca ptr, align 8
  store ptr %0, ptr %2, align 8, !tbaa !67
  %3 = load ptr, ptr %2, align 8, !tbaa !67
  %4 = getelementptr inbounds i8, ptr %3, i64 -128
  ret ptr %4
}

; Function Attrs: nounwind uwtable
define hidden void @zim_SQLite3_createFunction(ptr noundef %0, ptr noundef %1) #0 {
  %3 = alloca ptr, align 8
  %4 = alloca ptr, align 8
  %5 = alloca ptr, align 8
  %6 = alloca ptr, align 8
  %7 = alloca ptr, align 8
  %8 = alloca ptr, align 8
  %9 = alloca %struct._zend_fcall_info, align 8
  %10 = alloca %struct._zend_fcall_info_cache, align 8
  %11 = alloca i64, align 8
  %12 = alloca i64, align 8
  %13 = alloca i32, align 4
  store ptr %0, ptr %3, align 8, !tbaa !4
  store ptr %1, ptr %4, align 8, !tbaa !9
  call void @llvm.lifetime.start.p0(i64 8, ptr %5) #15
  call void @llvm.lifetime.start.p0(i64 8, ptr %6) #15
  %14 = load ptr, ptr %3, align 8, !tbaa !4
  %15 = getelementptr inbounds nuw %struct._zend_execute_data, ptr %14, i32 0, i32 4
  store ptr %15, ptr %6, align 8, !tbaa !9
  call void @llvm.lifetime.start.p0(i64 8, ptr %7) #15
  call void @llvm.lifetime.start.p0(i64 8, ptr %8) #15
  call void @llvm.lifetime.start.p0(i64 64, ptr %9) #15
  call void @llvm.memcpy.p0.p0.i64(ptr align 8 %9, ptr align 8 @empty_fcall_info, i64 64, i1 false), !tbaa.struct !106
  call void @llvm.lifetime.start.p0(i64 40, ptr %10) #15
  call void @llvm.memcpy.p0.p0.i64(ptr align 8 %10, ptr align 8 @empty_fcall_info_cache, i64 40, i1 false), !tbaa.struct !65
  call void @llvm.lifetime.start.p0(i64 8, ptr %11) #15
  store i64 -1, ptr %11, align 8, !tbaa !11
  call void @llvm.lifetime.start.p0(i64 8, ptr %12) #15
  store i64 0, ptr %12, align 8, !tbaa !11
  %16 = load ptr, ptr %6, align 8, !tbaa !9
  %17 = getelementptr inbounds nuw %struct._zval_struct, ptr %16, i32 0, i32 0
  %18 = load ptr, ptr %17, align 8, !tbaa !13
  %19 = call ptr @php_sqlite3_db_from_obj(ptr noundef %18)
  store ptr %19, ptr %5, align 8, !tbaa !14
  %20 = load ptr, ptr %3, align 8, !tbaa !4
  %21 = getelementptr inbounds nuw %struct._zend_execute_data, ptr %20, i32 0, i32 4
  %22 = getelementptr inbounds nuw %struct._zval_struct, ptr %21, i32 0, i32 2
  %23 = load i32, ptr %22, align 4, !tbaa !13
  %24 = call i32 (i32, ptr, ...) @zend_parse_parameters(i32 noundef %23, ptr noundef @.str.24, ptr noundef %8, ptr noundef %9, ptr noundef %10, ptr noundef %11, ptr noundef %12)
  %25 = icmp eq i32 %24, -1
  br i1 %25, label %26, label %32

26:                                               ; preds = %2
  call void @zend_release_fcall_info_cache(ptr noundef %10)
  br label %27

27:                                               ; preds = %26
  %28 = load ptr, ptr getelementptr inbounds nuw (%struct._zend_executor_globals, ptr @executor_globals, i32 0, i32 54), align 8, !tbaa !16
  %29 = icmp ne ptr %28, null
  call void @llvm.assume(i1 %29)
  store i32 1, ptr %13, align 4
  br label %113

30:                                               ; No predecessors!
  br label %31

31:                                               ; preds = %30
  br label %32

32:                                               ; preds = %31, %2
  %33 = load ptr, ptr %5, align 8, !tbaa !14
  %34 = icmp ne ptr %33, null
  br i1 %34, label %35, label %40

35:                                               ; preds = %32
  %36 = load ptr, ptr %5, align 8, !tbaa !14
  %37 = getelementptr inbounds nuw %struct._php_sqlite3_db_object, ptr %36, i32 0, i32 0
  %38 = load i8, ptr %37, align 8, !tbaa !48, !range !59, !noundef !60
  %39 = trunc i8 %38 to i1
  br i1 %39, label %46, label %40

40:                                               ; preds = %35, %32
  call void @zend_release_fcall_info_cache(ptr noundef %10)
  call void (ptr, ptr, ...) @zend_throw_error(ptr noundef null, ptr noundef @.str.8)
  br label %41

41:                                               ; preds = %40
  %42 = load ptr, ptr getelementptr inbounds nuw (%struct._zend_executor_globals, ptr @executor_globals, i32 0, i32 54), align 8, !tbaa !16
  %43 = icmp ne ptr %42, null
  call void @llvm.assume(i1 %43)
  store i32 1, ptr %13, align 4
  br label %113

44:                                               ; No predecessors!
  br label %45

45:                                               ; preds = %44
  br label %46

46:                                               ; preds = %45, %35
  %47 = load ptr, ptr %8, align 8, !tbaa !76
  %48 = getelementptr inbounds nuw %struct._zend_string, ptr %47, i32 0, i32 2
  %49 = load i64, ptr %48, align 8, !tbaa !81
  %50 = icmp ne i64 %49, 0
  br i1 %50, label %60, label %51

51:                                               ; preds = %46
  call void @zend_release_fcall_info_cache(ptr noundef %10)
  br label %52

52:                                               ; preds = %51
  br label %53

53:                                               ; preds = %52
  %54 = load ptr, ptr %4, align 8, !tbaa !9
  %55 = getelementptr inbounds nuw %struct._zval_struct, ptr %54, i32 0, i32 1
  store i32 2, ptr %55, align 8, !tbaa !13
  br label %56

56:                                               ; preds = %53
  br label %57

57:                                               ; preds = %56
  store i32 1, ptr %13, align 4
  br label %113

58:                                               ; No predecessors!
  br label %59

59:                                               ; preds = %58
  br label %60

60:                                               ; preds = %59, %46
  %61 = call noalias ptr @_ecalloc(i64 noundef 1, i64 noundef 144) #17
  store ptr %61, ptr %7, align 8, !tbaa !107
  %62 = load ptr, ptr %5, align 8, !tbaa !14
  %63 = getelementptr inbounds nuw %struct._php_sqlite3_db_object, ptr %62, i32 0, i32 2
  %64 = load ptr, ptr %63, align 8, !tbaa !64
  %65 = load ptr, ptr %8, align 8, !tbaa !76
  %66 = getelementptr inbounds nuw %struct._zend_string, ptr %65, i32 0, i32 3
  %67 = getelementptr inbounds [1 x i8], ptr %66, i64 0, i64 0
  %68 = load i64, ptr %11, align 8, !tbaa !11
  %69 = trunc i64 %68 to i32
  %70 = load i64, ptr %12, align 8, !tbaa !11
  %71 = or i64 %70, 1
  %72 = trunc i64 %71 to i32
  %73 = load ptr, ptr %7, align 8, !tbaa !107
  %74 = call i32 @sqlite3_create_function(ptr noundef %64, ptr noundef %67, i32 noundef %69, i32 noundef %72, ptr noundef %73, ptr noundef @php_sqlite3_callback_func, ptr noundef null, ptr noundef null)
  %75 = icmp eq i32 %74, 0
  br i1 %75, label %76, label %103

76:                                               ; preds = %60
  %77 = load ptr, ptr %8, align 8, !tbaa !76
  %78 = call ptr @zend_string_copy(ptr noundef %77)
  %79 = load ptr, ptr %7, align 8, !tbaa !107
  %80 = getelementptr inbounds nuw %struct._php_sqlite3_func, ptr %79, i32 0, i32 1
  store ptr %78, ptr %80, align 8, !tbaa !108
  %81 = load ptr, ptr %7, align 8, !tbaa !107
  %82 = getelementptr inbounds nuw %struct._php_sqlite3_func, ptr %81, i32 0, i32 3
  call void @zend_fcc_dup(ptr noundef %82, ptr noundef %10)
  %83 = load i64, ptr %11, align 8, !tbaa !11
  %84 = trunc i64 %83 to i32
  %85 = load ptr, ptr %7, align 8, !tbaa !107
  %86 = getelementptr inbounds nuw %struct._php_sqlite3_func, ptr %85, i32 0, i32 2
  store i32 %84, ptr %86, align 8, !tbaa !110
  %87 = load ptr, ptr %5, align 8, !tbaa !14
  %88 = getelementptr inbounds nuw %struct._php_sqlite3_db_object, ptr %87, i32 0, i32 3
  %89 = load ptr, ptr %88, align 8, !tbaa !111
  %90 = load ptr, ptr %7, align 8, !tbaa !107
  %91 = getelementptr inbounds nuw %struct._php_sqlite3_func, ptr %90, i32 0, i32 0
  store ptr %89, ptr %91, align 8, !tbaa !112
  %92 = load ptr, ptr %7, align 8, !tbaa !107
  %93 = load ptr, ptr %5, align 8, !tbaa !14
  %94 = getelementptr inbounds nuw %struct._php_sqlite3_db_object, ptr %93, i32 0, i32 3
  store ptr %92, ptr %94, align 8, !tbaa !111
  br label %95

95:                                               ; preds = %76
  br label %96

96:                                               ; preds = %95
  %97 = load ptr, ptr %4, align 8, !tbaa !9
  %98 = getelementptr inbounds nuw %struct._zval_struct, ptr %97, i32 0, i32 1
  store i32 3, ptr %98, align 8, !tbaa !13
  br label %99

99:                                               ; preds = %96
  br label %100

100:                                              ; preds = %99
  store i32 1, ptr %13, align 4
  br label %113

101:                                              ; No predecessors!
  br label %102

102:                                              ; preds = %101
  br label %103

103:                                              ; preds = %102, %60
  %104 = load ptr, ptr %7, align 8, !tbaa !107
  call void @_efree(ptr noundef %104)
  call void @zend_release_fcall_info_cache(ptr noundef %10)
  br label %105

105:                                              ; preds = %103
  br label %106

106:                                              ; preds = %105
  %107 = load ptr, ptr %4, align 8, !tbaa !9
  %108 = getelementptr inbounds nuw %struct._zval_struct, ptr %107, i32 0, i32 1
  store i32 2, ptr %108, align 8, !tbaa !13
  br label %109

109:                                              ; preds = %106
  br label %110

110:                                              ; preds = %109
  store i32 1, ptr %13, align 4
  br label %113

111:                                              ; No predecessors!
  br label %112

112:                                              ; preds = %111
  store i32 0, ptr %13, align 4
  br label %113

113:                                              ; preds = %112, %110, %100, %57, %41, %27
  call void @llvm.lifetime.end.p0(i64 8, ptr %12) #15
  call void @llvm.lifetime.end.p0(i64 8, ptr %11) #15
  call void @llvm.lifetime.end.p0(i64 40, ptr %10) #15
  call void @llvm.lifetime.end.p0(i64 64, ptr %9) #15
  call void @llvm.lifetime.end.p0(i64 8, ptr %8) #15
  call void @llvm.lifetime.end.p0(i64 8, ptr %7) #15
  call void @llvm.lifetime.end.p0(i64 8, ptr %6) #15
  call void @llvm.lifetime.end.p0(i64 8, ptr %5) #15
  %114 = load i32, ptr %13, align 4
  switch i32 %114, label %116 [
    i32 0, label %115
    i32 1, label %115
  ]

115:                                              ; preds = %113, %113
  ret void

116:                                              ; preds = %113
  unreachable
}