; Function Attrs: nounwind uwtable
define hidden void @zim_SQLite3_createFunction(ptr noundef readonly captures(none) %0, ptr noundef writeonly captures(none) %1) #0 {
  %3 = alloca ptr, align 8
  %4 = alloca %struct._zend_fcall_info, align 8
  %5 = alloca %struct._zend_fcall_info_cache, align 8
  %6 = alloca i64, align 8
  %7 = alloca i64, align 8
  %8 = getelementptr inbounds nuw i8, ptr %0, i64 32
  call void @llvm.lifetime.start.p0(i64 8, ptr nonnull %3) #17
  call void @llvm.lifetime.start.p0(i64 64, ptr nonnull %4) #17
  call void @llvm.memcpy.p0.p0.i64(ptr noundef nonnull align 8 dereferenceable(64) %4, ptr noundef nonnull align 8 dereferenceable(64) @empty_fcall_info, i64 64, i1 false), !tbaa.struct !102
  call void @llvm.lifetime.start.p0(i64 40, ptr nonnull %5) #17
  call void @llvm.memcpy.p0.p0.i64(ptr noundef nonnull align 8 dereferenceable(40) %5, ptr noundef nonnull align 8 dereferenceable(40) @empty_fcall_info_cache, i64 40, i1 false), !tbaa.struct !60
  call void @llvm.lifetime.start.p0(i64 8, ptr nonnull %6) #17
  store i64 -1, ptr %6, align 8, !tbaa !4
  call void @llvm.lifetime.start.p0(i64 8, ptr nonnull %7) #17
  store i64 0, ptr %7, align 8, !tbaa !4
  %9 = load ptr, ptr %8, align 8, !tbaa !8
  %10 = getelementptr inbounds nuw i8, ptr %0, i64 44
  %11 = load i32, ptr %10, align 4, !tbaa !8
  %12 = call i32 (i32, ptr, ...) @zend_parse_parameters(i32 noundef %11, ptr noundef nonnull @.str.24, ptr noundef nonnull %3, ptr noundef nonnull %4, ptr noundef nonnull %5, ptr noundef nonnull %6, ptr noundef nonnull %7) #17
  %13 = icmp eq i32 %12, -1
  br i1 %13, label %14, label %17

14:                                               ; preds = %2
  call void @zend_release_fcall_info_cache(ptr noundef nonnull %5) #17
  %15 = load ptr, ptr getelementptr inbounds nuw (i8, ptr @executor_globals, i64 960), align 8, !tbaa !9
  %16 = icmp ne ptr %15, null
  call void @llvm.assume(i1 %16)
  br label %79

17:                                               ; preds = %2
  %18 = getelementptr inbounds i8, ptr %9, i64 -128
  %19 = load i8, ptr %18, align 8, !tbaa !44, !range !55, !noundef !56
  %20 = trunc nuw i8 %19 to i1
  br i1 %20, label %24, label %21

21:                                               ; preds = %17
  call void @zend_release_fcall_info_cache(ptr noundef nonnull %5) #17
  call void (ptr, ptr, ...) @zend_throw_error(ptr noundef null, ptr noundef nonnull @.str.8) #17
  %22 = load ptr, ptr getelementptr inbounds nuw (i8, ptr @executor_globals, i64 960), align 8, !tbaa !9
  %23 = icmp ne ptr %22, null
  call void @llvm.assume(i1 %23)
  br label %79

24:                                               ; preds = %17
  %25 = load ptr, ptr %3, align 8, !tbaa !79
  %26 = getelementptr inbounds nuw i8, ptr %25, i64 16
  %27 = load i64, ptr %26, align 8, !tbaa !73
  %.not18 = icmp eq i64 %27, 0
  br i1 %.not18, label %28, label %30

28:                                               ; preds = %24
  call void @zend_release_fcall_info_cache(ptr noundef nonnull %5) #17
  %29 = getelementptr inbounds nuw i8, ptr %1, i64 8
  store i32 2, ptr %29, align 8, !tbaa !8
  br label %79

30:                                               ; preds = %24
  %31 = call noalias dereferenceable_or_null(144) ptr @_ecalloc(i64 noundef 1, i64 noundef 144) #20
  %32 = getelementptr inbounds i8, ptr %9, i64 -120
  %33 = load ptr, ptr %32, align 8, !tbaa !59
  %34 = load ptr, ptr %3, align 8, !tbaa !79
  %35 = getelementptr inbounds nuw i8, ptr %34, i64 24
  %36 = load i64, ptr %6, align 8, !tbaa !4
  %37 = trunc i64 %36 to i32
  %38 = load i64, ptr %7, align 8, !tbaa !4
  %39 = trunc i64 %38 to i32
  %40 = or i32 %39, 1
  %41 = call i32 @sqlite3_create_function(ptr noundef %33, ptr noundef nonnull %35, i32 noundef %37, i32 noundef %40, ptr noundef %31, ptr noundef nonnull @php_sqlite3_callback_func, ptr noundef null, ptr noundef null) #17
  %42 = icmp eq i32 %41, 0
  br i1 %42, label %43, label %77

43:                                               ; preds = %30
  %44 = load ptr, ptr %3, align 8, !tbaa !79
  %45 = getelementptr inbounds nuw i8, ptr %44, i64 4
  %46 = load i32, ptr %45, align 4, !tbaa !8
  %47 = and i32 %46, 64
  %.not.i = icmp eq i32 %47, 0
  br i1 %.not.i, label %48, label %zend_string_copy.exit

48:                                               ; preds = %43
  %49 = load i32, ptr %44, align 4, !tbaa !70
  %50 = add i32 %49, 1
  store i32 %50, ptr %44, align 4, !tbaa !70
  br label %zend_string_copy.exit

zend_string_copy.exit:                            ; preds = %43, %48
  %51 = getelementptr inbounds nuw i8, ptr %31, i64 8
  store ptr %44, ptr %51, align 8, !tbaa !106
  %52 = getelementptr inbounds nuw i8, ptr %31, i64 24
  call void @llvm.memcpy.p0.p0.i64(ptr noundef nonnull align 8 dereferenceable(40) %52, ptr noundef nonnull align 8 dereferenceable(40) %5, i64 40, i1 false)
  %53 = load ptr, ptr %52, align 8, !tbaa !74, !nonnull !56, !noundef !56
  %54 = icmp eq ptr %53, getelementptr inbounds nuw (i8, ptr @executor_globals, i64 1384)
  br i1 %54, label %55, label %59, !prof !108

55:                                               ; preds = %zend_string_copy.exit
  %56 = call noalias ptr @_emalloc_256() #17
  %57 = load ptr, ptr %52, align 8, !tbaa !74
  call void @llvm.memcpy.p0.p0.i64(ptr noundef nonnull align 8 dereferenceable(256) %56, ptr noundef nonnull align 8 dereferenceable(256) %57, i64 256, i1 false)
  %58 = getelementptr inbounds nuw i8, ptr %57, i64 8
  store ptr null, ptr %58, align 8, !tbaa !8
  store ptr %56, ptr %52, align 8, !tbaa !74
  br label %59

59:                                               ; preds = %55, %zend_string_copy.exit
  %60 = getelementptr inbounds nuw i8, ptr %31, i64 48
  %61 = load ptr, ptr %60, align 8, !tbaa !76
  %.not.i19 = icmp eq ptr %61, null
  br i1 %.not.i19, label %65, label %62

62:                                               ; preds = %59
  %63 = load i32, ptr %61, align 4, !tbaa !70
  %64 = add i32 %63, 1
  store i32 %64, ptr %61, align 4, !tbaa !70
  br label %65

65:                                               ; preds = %62, %59
  %66 = getelementptr inbounds nuw i8, ptr %31, i64 56
  %67 = load ptr, ptr %66, align 8, !tbaa !109
  %.not12.i = icmp eq ptr %67, null
  br i1 %.not12.i, label %zend_fcc_addref.exit, label %68

68:                                               ; preds = %65
  %69 = load i32, ptr %67, align 4, !tbaa !70
  %70 = add i32 %69, 1
  store i32 %70, ptr %67, align 4, !tbaa !70
  br label %zend_fcc_addref.exit

zend_fcc_addref.exit:                             ; preds = %65, %68
  %71 = load i64, ptr %6, align 8, !tbaa !4
  %72 = trunc i64 %71 to i32
  %73 = getelementptr inbounds nuw i8, ptr %31, i64 16
  store i32 %72, ptr %73, align 8, !tbaa !110
  %74 = getelementptr inbounds i8, ptr %9, i64 -112
  %75 = load ptr, ptr %74, align 8, !tbaa !111
  store ptr %75, ptr %31, align 8, !tbaa !112
  store ptr %31, ptr %74, align 8, !tbaa !111
  %76 = getelementptr inbounds nuw i8, ptr %1, i64 8
  store i32 3, ptr %76, align 8, !tbaa !8
  br label %79

77:                                               ; preds = %30
  call void @_efree(ptr noundef %31) #17
  call void @zend_release_fcall_info_cache(ptr noundef nonnull %5) #17
  %78 = getelementptr inbounds nuw i8, ptr %1, i64 8
  store i32 2, ptr %78, align 8, !tbaa !8
  br label %79

79:                                               ; preds = %77, %zend_fcc_addref.exit, %28, %21, %14
  call void @llvm.lifetime.end.p0(i64 8, ptr nonnull %7) #17
  call void @llvm.lifetime.end.p0(i64 8, ptr nonnull %6) #17
  call void @llvm.lifetime.end.p0(i64 40, ptr nonnull %5) #17
  call void @llvm.lifetime.end.p0(i64 64, ptr nonnull %4) #17
  call void @llvm.lifetime.end.p0(i64 8, ptr nonnull %3) #17
  ret void
}